; Function Attrs: mustprogress nounwind uwtable
define hidden noundef zeroext i1 @_ZN6hermes6parser6detail12JSParserImpl3eatENS0_9TokenKindENS0_7JSLexer14GrammarContextEPKcS7_N4llvh5SMLocE(ptr noundef nonnull align 8 dereferenceable(2752) %this, i32 noundef %kind, i32 noundef %grammarContext, ptr noundef %where, ptr noundef %what, ptr %whatLoc.coerce) local_unnamed_addr #0 align 2 {
entry:
  %k1.addr.i.i = alloca i32, align 4
  %tok_.i = getelementptr inbounds i8, ptr %this, i64 1144
  %0 = load ptr, ptr %tok_.i, align 8
  %1 = load i32, ptr %0, align 8
  %cmp.i = icmp eq i32 %1, %kind
  br i1 %cmp.i, label %if.then, label %_ZN6hermes6parser6detail12JSParserImpl4needENS0_9TokenKindEPKcS5_N4llvh5SMLocE.exit

_ZN6hermes6parser6detail12JSParserImpl4needENS0_9TokenKindEPKcS5_N4llvh5SMLocE.exit: ; preds = %entry
  call void @llvm.lifetime.start.p0(i64 4, ptr nonnull %k1.addr.i.i)
  store i32 %kind, ptr %k1.addr.i.i, align 4
  call void @_ZN6hermes6parser6detail12JSParserImpl13errorExpectedEN4llvh8ArrayRefINS0_9TokenKindEEEPKcS8_NS3_5SMLocE(ptr noundef nonnull align 8 dereferenceable(2752) %this, ptr nonnull %k1.addr.i.i, i64 1, ptr noundef %where, ptr noundef %what, ptr %whatLoc.coerce)
  call void @llvm.lifetime.end.p0(i64 4, ptr nonnull %k1.addr.i.i)
  br label %return

if.then:                                          ; preds = %entry
  %lexer_.i = getelementptr inbounds i8, ptr %this, i64 16
  %call2.i = tail call noundef ptr @_ZN6hermes6parser7JSLexer7advanceENS1_14GrammarContextE(ptr noundef nonnull align 8 dereferenceable(1128) %lexer_.i, i32 noundef %grammarContext) #16
  store ptr %call2.i, ptr %tok_.i, align 8
  br label %return

return:                                           ; preds = %_ZN6hermes6parser6detail12JSParserImpl4needENS0_9TokenKindEPKcS5_N4llvh5SMLocE.exit, %if.then
  ret i1 %cmp.i
}